target datalayout = "e-m:e-p270:32:32-p271:32:32-p272:64:64-i64:64-i128:128-f80:128-n8:16:32:64-S128"
target triple = "x86_64-pc-linux-gnu"

%struct.slurm_opt_t = type { ptr, ptr, ptr, ptr, ptr, ptr, ptr, ptr, i32, ptr, ptr, ptr, ptr, i32, i32, ptr, i32, i8, i8, i32, i8, i32, i32, ptr, i8, i32, i32, i64, i32, i32, i32, i32, i32, i32, ptr, i32, ptr, i8, i32, i32, ptr, i32, i32, i32, ptr, ptr, i32, i32, ptr, ptr, ptr, i32, i16, i16, i16, i8, i8, ptr, i8, i16, ptr, ptr, i32, i32, i32, ptr, ptr, ptr, ptr, ptr, ptr, i32, i64, i64, i64, i16, i64, ptr, ptr, ptr, ptr, ptr, ptr, ptr, i8, ptr, ptr, ptr, ptr, i8, i64, ptr, i16, ptr, i32, i32, ptr, ptr, i32, i32, i32, ptr, i32, i32, i32, i32, i32, ptr, i64, i32, i16, i32, ptr, ptr, ptr, ptr, ptr, i16, ptr, ptr, i16, i8, ptr, ptr, ptr, ptr }

@.str.105 = private unnamed_addr constant [2 x i8] c"=\00", align 1

; Function Attrs: nounwind uwtable
define dso_local ptr @spank_get_job_env(ptr noundef %0) #0 {
  %2 = alloca ptr, align 8
  %3 = alloca ptr, align 8
  %4 = alloca i32, align 4
  %5 = alloca i32, align 4
  %6 = alloca ptr, align 8
  %7 = alloca i32, align 4
  store ptr %0, ptr %3, align 8
  call void @llvm.lifetime.start.p0(i64 4, ptr %4) #9
  call void @llvm.lifetime.start.p0(i64 4, ptr %5) #9
  call void @llvm.lifetime.start.p0(i64 8, ptr %6) #9
  store ptr null, ptr %6, align 8
  %8 = load ptr, ptr %3, align 8
  %9 = icmp eq ptr %8, null
  br i1 %9, label %20, label %10

10:                                               ; preds = %1
  %11 = load ptr, ptr %3, align 8
  %12 = getelementptr inbounds i8, ptr %11, i64 0
  %13 = load i8, ptr %12, align 1
  %14 = sext i8 %13 to i32
  %15 = icmp eq i32 %14, 0
  br i1 %15, label %20, label %16

16:                                               ; preds = %10
  %17 = load ptr, ptr %3, align 8
  %18 = call ptr @strchr(ptr noundef %17, i32 noundef 61) #11
  %19 = icmp ne ptr %18, null
  br i1 %19, label %20, label %22

20:                                               ; preds = %16, %10, %1
  %21 = call ptr @__errno_location() #13
  store i32 22, ptr %21, align 4
  store ptr null, ptr %2, align 8
  store i32 1, ptr %7, align 4
  br label %56

22:                                               ; preds = %16
  %23 = load ptr, ptr %3, align 8
  call void @_xstrcat(ptr noundef %6, ptr noundef %23)
  call void @_xstrcat(ptr noundef %6, ptr noundef @.str.105)
  %24 = load ptr, ptr %6, align 8
  %25 = call i64 @strlen(ptr noundef %24) #11
  %26 = trunc i64 %25 to i32
  store i32 %26, ptr %5, align 4
  store i32 0, ptr %4, align 4
  br label %27

27:                                               ; preds = %52, %22
  %28 = load i32, ptr %4, align 4
  %29 = load i32, ptr getelementptr inbounds nuw (%struct.slurm_opt_t, ptr @opt, i32 0, i32 102), align 8
  %30 = icmp slt i32 %28, %29
  br i1 %30, label %31, label %55

31:                                               ; preds = %27
  %32 = load ptr, ptr getelementptr inbounds nuw (%struct.slurm_opt_t, ptr @opt, i32 0, i32 101), align 8
  %33 = load i32, ptr %4, align 4
  %34 = sext i32 %33 to i64
  %35 = getelementptr inbounds ptr, ptr %32, i64 %34
  %36 = load ptr, ptr %35, align 8
  %37 = load ptr, ptr %6, align 8
  %38 = load i32, ptr %5, align 4
  %39 = sext i32 %38 to i64
  %40 = call i32 @xstrncmp(ptr noundef %36, ptr noundef %37, i64 noundef %39)
  %41 = icmp ne i32 %40, 0
  br i1 %41, label %42, label %43

42:                                               ; preds = %31
  br label %52

43:                                               ; preds = %31
  call void @slurm_xfree(ptr noundef %6)
  %44 = load ptr, ptr getelementptr inbounds nuw (%struct.slurm_opt_t, ptr @opt, i32 0, i32 101), align 8
  %45 = load i32, ptr %4, align 4
  %46 = sext i32 %45 to i64
  %47 = getelementptr inbounds ptr, ptr %44, i64 %46
  %48 = load ptr, ptr %47, align 8
  %49 = load i32, ptr %5, align 4
  %50 = sext i32 %49 to i64
  %51 = getelementptr inbounds i8, ptr %48, i64 %50
  store ptr %51, ptr %2, align 8
  store i32 1, ptr %7, align 4
  br label %56

52:                                               ; preds = %42
  %53 = load i32, ptr %4, align 4
  %54 = add nsw i32 %53, 1
  store i32 %54, ptr %4, align 4
  br label %27, !llvm.loop !27

55:                                               ; preds = %27
  store ptr null, ptr %2, align 8
  store i32 1, ptr %7, align 4
  br label %56

56:                                               ; preds = %55, %43, %20
  call void @llvm.lifetime.end.p0(i64 8, ptr %6) #9
  call void @llvm.lifetime.end.p0(i64 4, ptr %5) #9
  call void @llvm.lifetime.end.p0(i64 4, ptr %4) #9
  %57 = load ptr, ptr %2, align 8
  ret ptr %57
}