; Function Attrs: nounwind uwtable
define dso_local ptr @spank_get_job_env(ptr noundef %0) local_unnamed_addr #0 {
  %2 = alloca ptr, align 8
  call void @llvm.lifetime.start.p0(i64 8, ptr nonnull %2) #17
  store ptr null, ptr %2, align 8
  %3 = icmp eq ptr %0, null
  br i1 %3, label %9, label %4

4:                                                ; preds = %1
  %5 = load i8, ptr %0, align 1
  %6 = icmp eq i8 %5, 0
  br i1 %6, label %9, label %7

7:                                                ; preds = %4
  %8 = tail call ptr @strchr(ptr noundef nonnull dereferenceable(1) %0, i32 noundef 61) #19
  %.not = icmp eq ptr %8, null
  br i1 %.not, label %11, label %9

9:                                                ; preds = %7, %4, %1
  %10 = tail call ptr @__errno_location() #20
  store i32 22, ptr %10, align 4
  br label %.loopexit

11:                                               ; preds = %7
  call void @_xstrcat(ptr noundef nonnull %2, ptr noundef nonnull %0) #17
  call void @_xstrcat(ptr noundef nonnull %2, ptr noundef nonnull @.str.105) #17
  %12 = load i32, ptr getelementptr inbounds nuw (i8, ptr @opt, i64 656), align 8
  %13 = icmp sgt i32 %12, 0
  br i1 %13, label %.lr.ph, label %.loopexit

.lr.ph:                                           ; preds = %11
  %14 = load ptr, ptr %2, align 8
  %15 = call i64 @strlen(ptr noundef nonnull dereferenceable(1) %14) #19
  %sext = shl i64 %15, 32
  %16 = ashr exact i64 %sext, 32
  br label %21

17:                                               ; preds = %21
  %indvars.iv.next = add nuw nsw i64 %indvars.iv, 1
  %18 = load i32, ptr getelementptr inbounds nuw (i8, ptr @opt, i64 656), align 8
  %19 = sext i32 %18 to i64
  %20 = icmp slt i64 %indvars.iv.next, %19
  br i1 %20, label %21, label %.loopexit, !llvm.loop !26

21:                                               ; preds = %.lr.ph, %17
  %indvars.iv = phi i64 [ 0, %.lr.ph ], [ %indvars.iv.next, %17 ]
  %22 = load ptr, ptr getelementptr inbounds nuw (i8, ptr @opt, i64 648), align 8
  %23 = getelementptr inbounds nuw ptr, ptr %22, i64 %indvars.iv
  %24 = load ptr, ptr %23, align 8
  %25 = load ptr, ptr %2, align 8
  %26 = call i32 @xstrncmp(ptr noundef %24, ptr noundef %25, i64 noundef %16) #17
  %.not12 = icmp eq i32 %26, 0
  br i1 %.not12, label %27, label %17

27:                                               ; preds = %21
  call void @slurm_xfree(ptr noundef nonnull %2) #17
  %28 = load ptr, ptr getelementptr inbounds nuw (i8, ptr @opt, i64 648), align 8
  %29 = getelementptr inbounds nuw ptr, ptr %28, i64 %indvars.iv
  %30 = load ptr, ptr %29, align 8
  %31 = getelementptr inbounds i8, ptr %30, i64 %16
  br label %.loopexit

.loopexit:                                        ; preds = %17, %11, %27, %9
  %.0 = phi ptr [ null, %9 ], [ %31, %27 ], [ null, %11 ], [ null, %17 ]
  call void @llvm.lifetime.end.p0(i64 8, ptr nonnull %2) #17
  ret ptr %.0
}